; Function Attrs: mustprogress uwtable
define internal fastcc void @"_ZZN2cv4gapi3wip5asyncERNS_9GCompiledEOSt8functionIFvNSt15__exception_ptr13exception_ptrEEEOSt6vectorINS_7GRunArgESaISB_EEOSA_INS_4util7variantIJPNS_4UMatEPNS_3MatEPNS_4RMatEPNS_7Scalar_IdEEPNS_10MediaFrameENS_6detail9VectorRefENSS_9OpaqueRefEEEESaISV_EEEN3$_0C2ERKSZ_"(ptr noundef nonnull align 8 dereferenceable(96) %0, ptr noundef nonnull align 8 dereferenceable(96) %1) unnamed_addr #2 align 2 personality ptr @__gxx_personality_v0 {
  %3 = load ptr, ptr %1, align 8
  store ptr %3, ptr %0, align 8
  %4 = getelementptr inbounds i8, ptr %0, i64 8
  %5 = getelementptr inbounds i8, ptr %1, i64 8
  %6 = load ptr, ptr %5, align 8
  store ptr %6, ptr %4, align 8
  %.not.i.i.i.i = icmp eq ptr %6, null
  br i1 %.not.i.i.i.i, label %_ZN2cv9GCompiledC2ERKS0_.exit, label %7

7:                                                ; preds = %2
  %8 = getelementptr inbounds i8, ptr %6, i64 8
  %9 = load i8, ptr @__libc_single_threaded, align 1
  %.not.i.i.i.i.i = icmp eq i8 %9, 0
  br i1 %.not.i.i.i.i.i, label %13, label %10

10:                                               ; preds = %7
  %11 = load i32, ptr %8, align 4
  %12 = add nsw i32 %11, 1
  store i32 %12, ptr %8, align 4
  br label %_ZN2cv9GCompiledC2ERKS0_.exit

13:                                               ; preds = %7
  %14 = atomicrmw volatile add ptr %8, i32 1 acq_rel, align 4
  br label %_ZN2cv9GCompiledC2ERKS0_.exit

_ZN2cv9GCompiledC2ERKS0_.exit:                    ; preds = %2, %10, %13
  %15 = getelementptr inbounds i8, ptr %0, i64 16
  %16 = getelementptr inbounds i8, ptr %1, i64 16
  invoke void @_ZNSt6vectorIN2cv7GRunArgESaIS1_EEC2ERKS3_(ptr noundef nonnull align 8 dereferenceable(24) %15, ptr noundef nonnull align 8 dereferenceable(24) %16)
          to label %17 unwind label %41

17:                                               ; preds = %_ZN2cv9GCompiledC2ERKS0_.exit
  %18 = getelementptr inbounds i8, ptr %0, i64 40
  %19 = getelementptr inbounds i8, ptr %1, i64 40
  invoke void @_ZNSt6vectorIN2cv4util7variantIJPNS0_4UMatEPNS0_3MatEPNS0_4RMatEPNS0_7Scalar_IdEEPNS0_10MediaFrameENS0_6detail9VectorRefENSE_9OpaqueRefEEEESaISH_EEC2ERKSJ_(ptr noundef nonnull align 8 dereferenceable(24) %18, ptr noundef nonnull align 8 dereferenceable(24) %19)
          to label %20 unwind label %43

20:                                               ; preds = %17
  %21 = getelementptr inbounds i8, ptr %0, i64 64
  %22 = getelementptr inbounds i8, ptr %0, i64 80
  %23 = getelementptr inbounds i8, ptr %0, i64 88
  %24 = getelementptr inbounds i8, ptr %1, i64 80
  tail call void @llvm.memset.p0.i64(ptr noundef nonnull align 8 dereferenceable(32) %21, i8 0, i64 32, i1 false)
  %25 = load ptr, ptr %24, align 8
  %.not.i.i.not.i = icmp eq ptr %25, null
  br i1 %.not.i.i.not.i, label %_ZNSt8functionIFvNSt15__exception_ptr13exception_ptrEEEC2ERKS3_.exit, label %26

26:                                               ; preds = %20
  %27 = getelementptr inbounds i8, ptr %1, i64 64
  %28 = invoke noundef zeroext i1 %25(ptr noundef nonnull align 8 dereferenceable(16) %21, ptr noundef nonnull align 8 dereferenceable(16) %27, i32 noundef 2)
          to label %29 unwind label %33

29:                                               ; preds = %26
  %30 = getelementptr inbounds i8, ptr %1, i64 88
  %31 = load ptr, ptr %30, align 8
  store ptr %31, ptr %23, align 8
  %32 = load ptr, ptr %24, align 8
  store ptr %32, ptr %22, align 8
  br label %_ZNSt8functionIFvNSt15__exception_ptr13exception_ptrEEEC2ERKS3_.exit

33:                                               ; preds = %26
  %34 = landingpad { ptr, i32 }
          cleanup
  %35 = load ptr, ptr %22, align 8
  %.not.i.i = icmp eq ptr %35, null
  br i1 %.not.i.i, label %.body, label %36

36:                                               ; preds = %33
  %37 = invoke noundef zeroext i1 %35(ptr noundef nonnull align 8 dereferenceable(16) %21, ptr noundef nonnull align 8 dereferenceable(16) %21, i32 noundef 3)
          to label %.body unwind label %38

38:                                               ; preds = %36
  %39 = landingpad { ptr, i32 }
          catch ptr null
  %40 = extractvalue { ptr, i32 } %39, 0
  tail call void @__clang_call_terminate(ptr %40) #19
  unreachable

_ZNSt8functionIFvNSt15__exception_ptr13exception_ptrEEEC2ERKS3_.exit: ; preds = %29, %20
  ret void

41:                                               ; preds = %_ZN2cv9GCompiledC2ERKS0_.exit
  %42 = landingpad { ptr, i32 }
          cleanup
  br label %46

43:                                               ; preds = %17
  %44 = landingpad { ptr, i32 }
          cleanup
  br label %45

.body:                                            ; preds = %33, %36
  tail call void @_ZNSt6vectorIN2cv4util7variantIJPNS0_4UMatEPNS0_3MatEPNS0_4RMatEPNS0_7Scalar_IdEEPNS0_10MediaFrameENS0_6detail9VectorRefENSE_9OpaqueRefEEEESaISH_EED2Ev(ptr noundef nonnull align 8 dereferenceable(24) %18) #20
  br label %45

45:                                               ; preds = %.body, %43
  %.pn = phi { ptr, i32 } [ %34, %.body ], [ %44, %43 ]
  tail call void @_ZNSt6vectorIN2cv7GRunArgESaIS1_EED2Ev(ptr noundef nonnull align 8 dereferenceable(24) %15) #20
  br label %46

46:                                               ; preds = %45, %41
  %.pn.pn = phi { ptr, i32 } [ %.pn, %45 ], [ %42, %41 ]
  tail call void @_ZN2cv9GCompiledD2Ev(ptr noundef nonnull align 8 dereferenceable(16) %0) #20
  resume { ptr, i32 } %.pn.pn
}